target datalayout = "e-m:e-p270:32:32-p271:32:32-p272:64:64-i64:64-i128:128-f80:128-n8:16:32:64-S128"
target triple = "x86_64-pc-linux-gnu"

@proto_register_t30.t30_ett = internal global [2 x ptr] [ptr @ett_t30, ptr @ett_t30_fif], align 16
@.str.217 = private unnamed_addr constant [5 x i8] c"T.30\00", align 1
@.str.218 = private unnamed_addr constant [4 x i8] c"t30\00", align 1
@proto_t30 = internal global i32 0, align 4
@.str.219 = private unnamed_addr constant [9 x i8] c"t30.hdlc\00", align 1

; Function Attrs: null_pointer_is_valid sspstrong uwtable
define hidden void @proto_register_t30() #1 {
  %1 = alloca ptr, align 8
  call void @llvm.lifetime.start.p0(i64 8, ptr %1) #8
  %2 = call i32 @proto_register_protocol(ptr noundef @.str.217, ptr noundef @.str.217, ptr noundef @.str.218)
  store i32 %2, ptr @proto_t30, align 4
  %3 = load i32, ptr @proto_t30, align 4
  call void @proto_register_field_array(i32 noundef %3, ptr noundef @proto_register_t30.hf_t30, i32 noundef 106)
  call void @proto_register_subtree_array(ptr noundef @proto_register_t30.t30_ett, i32 noundef 2)
  %4 = load i32, ptr @proto_t30, align 4
  %5 = call ptr @expert_register_protocol(i32 noundef %4)
  store ptr %5, ptr %1, align 8
  %6 = load ptr, ptr %1, align 8
  call void @expert_register_field_array(ptr noundef %6, ptr noundef @proto_register_t30.ei, i32 noundef 3)
  %7 = load i32, ptr @proto_t30, align 4
  %8 = call ptr @register_dissector(ptr noundef @.str.219, ptr noundef @dissect_t30_hdlc, i32 noundef %7)
  call void @llvm.lifetime.end.p0(i64 8, ptr %1) #8
  ret void
}