; Function Attrs: null_pointer_is_valid sspstrong uwtable
define hidden void @proto_register_t30() local_unnamed_addr #1 {
  %1 = tail call i32 @proto_register_protocol(ptr noundef nonnull @.str.217, ptr noundef nonnull @.str.217, ptr noundef nonnull @.str.218)
  store i32 %1, ptr @proto_t30, align 4
  tail call void @proto_register_field_array(i32 noundef %1, ptr noundef nonnull @proto_register_t30.hf_t30, i32 noundef 106)
  tail call void @proto_register_subtree_array(ptr noundef nonnull @proto_register_t30.t30_ett, i32 noundef 2)
  %2 = load i32, ptr @proto_t30, align 4
  %3 = tail call ptr @expert_register_protocol(i32 noundef %2)
  tail call void @expert_register_field_array(ptr noundef %3, ptr noundef nonnull @proto_register_t30.ei, i32 noundef 3)
  %4 = load i32, ptr @proto_t30, align 4
  %5 = tail call ptr @register_dissector(ptr noundef nonnull @.str.219, ptr noundef nonnull @dissect_t30_hdlc, i32 noundef %4)
  ret void
}